target datalayout = "e-m:e-p270:32:32-p271:32:32-p272:64:64-i64:64-i128:128-f80:128-n8:16:32:64-S128"
target triple = "x86_64-pc-linux-gnu"

%struct.XML_Memory_Handling_Suite = type { ptr, ptr, ptr }
%struct.XML_ParserStruct = type { ptr, ptr, ptr, %struct.XML_Memory_Handling_Suite, ptr, ptr, ptr, i64, ptr, i64, i8, i32, ptr, ptr, ptr, ptr, ptr, ptr, ptr, ptr, ptr, ptr, ptr, ptr, ptr, ptr, ptr, ptr, ptr, ptr, ptr, ptr, ptr, ptr, ptr, ptr, ptr, ptr, %struct.INIT_ENCODING, ptr, ptr, i8, i8, ptr, ptr, ptr, ptr, %struct.prolog_state, ptr, i32, ptr, ptr, ptr, ptr, ptr, i8, i32, ptr, ptr, ptr, ptr, ptr, ptr, ptr, ptr, ptr, i8, i8, ptr, ptr, ptr, ptr, ptr, ptr, i32, i32, i32, ptr, ptr, i64, i8, %struct.position, %struct.STRING_POOL, %struct.STRING_POOL, ptr, i32, i8, ptr, %struct.XML_ParsingStatus, i8, i8, i32, i64, %struct.accounting, %struct.entity_stats }
%struct.INIT_ENCODING = type { %struct.encoding, ptr }
%struct.encoding = type { [4 x ptr], [2 x ptr], ptr, ptr, ptr, ptr, ptr, ptr, ptr, ptr, ptr, ptr, i32, i8, i8 }
%struct.prolog_state = type { ptr, i32, i32, i32, i32, i32 }
%struct.position = type { i64, i64 }
%struct.STRING_POOL = type { ptr, ptr, ptr, ptr, ptr, ptr }
%struct.XML_ParsingStatus = type { i32, i8 }
%struct.accounting = type { i64, i64, i64, float, i64 }
%struct.entity_stats = type { i32, i32, i32, i64 }

; Function Attrs: nounwind uwtable
define internal i32 @callProcessor(ptr noundef %0, ptr noundef %1, ptr noundef %2, ptr noundef %3) #0 {
  %5 = alloca i32, align 4
  %6 = alloca ptr, align 8
  %7 = alloca ptr, align 8
  %8 = alloca ptr, align 8
  %9 = alloca ptr, align 8
  %10 = alloca i64, align 8
  %11 = alloca i64, align 8
  %12 = alloca i64, align 8
  %13 = alloca i8, align 1
  %14 = alloca i32, align 4
  %15 = alloca i32, align 4
  store ptr %0, ptr %6, align 8, !tbaa !12
  store ptr %1, ptr %7, align 8, !tbaa !3
  store ptr %2, ptr %8, align 8, !tbaa !3
  store ptr %3, ptr %9, align 8, !tbaa !203
  call void @llvm.lifetime.start.p0(i64 8, ptr %10) #11
  %16 = load ptr, ptr %8, align 8, !tbaa !3
  %17 = icmp ne ptr %16, null
  br i1 %17, label %18, label %27

18:                                               ; preds = %4
  %19 = load ptr, ptr %7, align 8, !tbaa !3
  %20 = icmp ne ptr %19, null
  br i1 %20, label %21, label %27

21:                                               ; preds = %18
  %22 = load ptr, ptr %8, align 8, !tbaa !3
  %23 = load ptr, ptr %7, align 8, !tbaa !3
  %24 = ptrtoint ptr %22 to i64
  %25 = ptrtoint ptr %23 to i64
  %26 = sub i64 %24, %25
  br label %28

27:                                               ; preds = %18, %4
  br label %28

28:                                               ; preds = %27, %21
  %29 = phi i64 [ %26, %21 ], [ 0, %27 ]
  store i64 %29, ptr %10, align 8, !tbaa !172
  %30 = load ptr, ptr %6, align 8, !tbaa !12
  %31 = getelementptr inbounds nuw %struct.XML_ParserStruct, ptr %30, i32 0, i32 10
  %32 = load i8, ptr %31, align 8, !tbaa !123
  %33 = zext i8 %32 to i32
  %34 = icmp ne i32 %33, 0
  br i1 %34, label %35, label %123

35:                                               ; preds = %28
  %36 = load ptr, ptr %6, align 8, !tbaa !12
  %37 = getelementptr inbounds nuw %struct.XML_ParserStruct, ptr %36, i32 0, i32 88
  %38 = getelementptr inbounds nuw %struct.XML_ParsingStatus, ptr %37, i32 0, i32 1
  %39 = load i8, ptr %38, align 4, !tbaa !212
  %40 = icmp ne i8 %39, 0
  br i1 %40, label %123, label %41

41:                                               ; preds = %35
  call void @llvm.lifetime.start.p0(i64 8, ptr %11) #11
  %42 = load ptr, ptr %6, align 8, !tbaa !12
  %43 = getelementptr inbounds nuw %struct.XML_ParserStruct, ptr %42, i32 0, i32 9
  %44 = load i64, ptr %43, align 8, !tbaa !122
  store i64 %44, ptr %11, align 8, !tbaa !172
  call void @llvm.lifetime.start.p0(i64 8, ptr %12) #11
  %45 = load ptr, ptr %6, align 8, !tbaa !12
  %46 = getelementptr inbounds nuw %struct.XML_ParserStruct, ptr %45, i32 0, i32 4
  %47 = load ptr, ptr %46, align 8, !tbaa !118
  %48 = icmp ne ptr %47, null
  br i1 %48, label %49, label %64

49:                                               ; preds = %41
  %50 = load ptr, ptr %6, align 8, !tbaa !12
  %51 = getelementptr inbounds nuw %struct.XML_ParserStruct, ptr %50, i32 0, i32 2
  %52 = load ptr, ptr %51, align 8, !tbaa !16
  %53 = icmp ne ptr %52, null
  br i1 %53, label %54, label %64

54:                                               ; preds = %49
  %55 = load ptr, ptr %6, align 8, !tbaa !12
  %56 = getelementptr inbounds nuw %struct.XML_ParserStruct, ptr %55, i32 0, i32 4
  %57 = load ptr, ptr %56, align 8, !tbaa !118
  %58 = load ptr, ptr %6, align 8, !tbaa !12
  %59 = getelementptr inbounds nuw %struct.XML_ParserStruct, ptr %58, i32 0, i32 2
  %60 = load ptr, ptr %59, align 8, !tbaa !16
  %61 = ptrtoint ptr %57 to i64
  %62 = ptrtoint ptr %60 to i64
  %63 = sub i64 %61, %62
  br label %65

64:                                               ; preds = %49, %41
  br label %65

65:                                               ; preds = %64, %54
  %66 = phi i64 [ %63, %54 ], [ 0, %64 ]
  store i64 %66, ptr %12, align 8, !tbaa !172
  %67 = load i64, ptr %12, align 8, !tbaa !172
  %68 = icmp ult i64 %67, 1024
  br i1 %68, label %69, label %71

69:                                               ; preds = %65
  %70 = load i64, ptr %12, align 8, !tbaa !172
  br label %72

71:                                               ; preds = %65
  br label %72

72:                                               ; preds = %71, %69
  %73 = phi i64 [ %70, %69 ], [ 1024, %71 ]
  %74 = load i64, ptr %12, align 8, !tbaa !172
  %75 = sub i64 %74, %73
  store i64 %75, ptr %12, align 8, !tbaa !172
  %76 = load ptr, ptr %6, align 8, !tbaa !12
  %77 = getelementptr inbounds nuw %struct.XML_ParserStruct, ptr %76, i32 0, i32 6
  %78 = load ptr, ptr %77, align 8, !tbaa !37
  %79 = icmp ne ptr %78, null
  br i1 %79, label %80, label %95

80:                                               ; preds = %72
  %81 = load ptr, ptr %6, align 8, !tbaa !12
  %82 = getelementptr inbounds nuw %struct.XML_ParserStruct, ptr %81, i32 0, i32 5
  %83 = load ptr, ptr %82, align 8, !tbaa !119
  %84 = icmp ne ptr %83, null
  br i1 %84, label %85, label %95

85:                                               ; preds = %80
  %86 = load ptr, ptr %6, align 8, !tbaa !12
  %87 = getelementptr inbounds nuw %struct.XML_ParserStruct, ptr %86, i32 0, i32 6
  %88 = load ptr, ptr %87, align 8, !tbaa !37
  %89 = load ptr, ptr %6, align 8, !tbaa !12
  %90 = getelementptr inbounds nuw %struct.XML_ParserStruct, ptr %89, i32 0, i32 5
  %91 = load ptr, ptr %90, align 8, !tbaa !119
  %92 = ptrtoint ptr %88 to i64
  %93 = ptrtoint ptr %91 to i64
  %94 = sub i64 %92, %93
  br label %96

95:                                               ; preds = %80, %72
  br label %96

96:                                               ; preds = %95, %85
  %97 = phi i64 [ %94, %85 ], [ 0, %95 ]
  %98 = load i64, ptr %12, align 8, !tbaa !172
  %99 = add i64 %98, %97
  store i64 %99, ptr %12, align 8, !tbaa !172
  call void @llvm.lifetime.start.p0(i64 1, ptr %13) #11
  %100 = load i64, ptr %10, align 8, !tbaa !172
  %101 = load i64, ptr %11, align 8, !tbaa !172
  %102 = mul i64 2, %101
  %103 = icmp uge i64 %100, %102
  br i1 %103, label %111, label %104

104:                                              ; preds = %96
  %105 = load ptr, ptr %6, align 8, !tbaa !12
  %106 = getelementptr inbounds nuw %struct.XML_ParserStruct, ptr %105, i32 0, i32 11
  %107 = load i32, ptr %106, align 4, !tbaa !124
  %108 = sext i32 %107 to i64
  %109 = load i64, ptr %12, align 8, !tbaa !172
  %110 = icmp ugt i64 %108, %109
  br label %111

111:                                              ; preds = %104, %96
  %112 = phi i1 [ true, %96 ], [ %110, %104 ]
  %113 = zext i1 %112 to i8
  store i8 %113, ptr %13, align 1, !tbaa !215
  %114 = load i8, ptr %13, align 1, !tbaa !215, !range !217, !noundef !218
  %115 = trunc i8 %114 to i1
  br i1 %115, label %119, label %116

116:                                              ; preds = %111
  %117 = load ptr, ptr %7, align 8, !tbaa !3
  %118 = load ptr, ptr %9, align 8, !tbaa !203
  store ptr %117, ptr %118, align 8, !tbaa !3
  store i32 0, ptr %5, align 4
  store i32 1, ptr %14, align 4
  br label %120

119:                                              ; preds = %111
  store i32 0, ptr %14, align 4
  br label %120

120:                                              ; preds = %119, %116
  call void @llvm.lifetime.end.p0(i64 1, ptr %13) #11
  call void @llvm.lifetime.end.p0(i64 8, ptr %12) #11
  call void @llvm.lifetime.end.p0(i64 8, ptr %11) #11
  %121 = load i32, ptr %14, align 4
  switch i32 %121, label %149 [
    i32 0, label %122
  ]

122:                                              ; preds = %120
  br label %123

123:                                              ; preds = %122, %35, %28
  call void @llvm.lifetime.start.p0(i64 4, ptr %15) #11
  %124 = load ptr, ptr %6, align 8, !tbaa !12
  %125 = getelementptr inbounds nuw %struct.XML_ParserStruct, ptr %124, i32 0, i32 48
  %126 = load ptr, ptr %125, align 8, !tbaa !92
  %127 = load ptr, ptr %6, align 8, !tbaa !12
  %128 = load ptr, ptr %7, align 8, !tbaa !3
  %129 = load ptr, ptr %8, align 8, !tbaa !3
  %130 = load ptr, ptr %9, align 8, !tbaa !203
  %131 = call i32 %126(ptr noundef %127, ptr noundef %128, ptr noundef %129, ptr noundef %130)
  store i32 %131, ptr %15, align 4, !tbaa !174
  %132 = load i32, ptr %15, align 4, !tbaa !174
  %133 = icmp eq i32 %132, 0
  br i1 %133, label %134, label %147

134:                                              ; preds = %123
  %135 = load ptr, ptr %9, align 8, !tbaa !203
  %136 = load ptr, ptr %135, align 8, !tbaa !3
  %137 = load ptr, ptr %7, align 8, !tbaa !3
  %138 = icmp eq ptr %136, %137
  br i1 %138, label %139, label %143

139:                                              ; preds = %134
  %140 = load i64, ptr %10, align 8, !tbaa !172
  %141 = load ptr, ptr %6, align 8, !tbaa !12
  %142 = getelementptr inbounds nuw %struct.XML_ParserStruct, ptr %141, i32 0, i32 9
  store i64 %140, ptr %142, align 8, !tbaa !122
  br label %146

143:                                              ; preds = %134
  %144 = load ptr, ptr %6, align 8, !tbaa !12
  %145 = getelementptr inbounds nuw %struct.XML_ParserStruct, ptr %144, i32 0, i32 9
  store i64 0, ptr %145, align 8, !tbaa !122
  br label %146

146:                                              ; preds = %143, %139
  br label %147

147:                                              ; preds = %146, %123
  %148 = load i32, ptr %15, align 4, !tbaa !174
  store i32 %148, ptr %5, align 4
  store i32 1, ptr %14, align 4
  call void @llvm.lifetime.end.p0(i64 4, ptr %15) #11
  br label %149

149:                                              ; preds = %147, %120
  call void @llvm.lifetime.end.p0(i64 8, ptr %10) #11
  %150 = load i32, ptr %5, align 4
  ret i32 %150
}

; Function Attrs: nounwind uwtable
define hidden i32 @PyExpat_XML_ResumeParser(ptr noundef %0) #0 {
  %2 = alloca i32, align 4
  %3 = alloca ptr, align 8
  %4 = alloca i32, align 4
  %5 = alloca i32, align 4
  store ptr %0, ptr %3, align 8, !tbaa !12
  call void @llvm.lifetime.start.p0(i64 4, ptr %4) #11
  store i32 1, ptr %4, align 4, !tbaa !174
  %6 = load ptr, ptr %3, align 8, !tbaa !12
  %7 = icmp eq ptr %6, null
  br i1 %7, label %8, label %9

8:                                                ; preds = %1
  store i32 0, ptr %2, align 4
  store i32 1, ptr %5, align 4
  br label %89

9:                                                ; preds = %1
  %10 = load ptr, ptr %3, align 8, !tbaa !12
  %11 = getelementptr inbounds nuw %struct.XML_ParserStruct, ptr %10, i32 0, i32 88
  %12 = getelementptr inbounds nuw %struct.XML_ParsingStatus, ptr %11, i32 0, i32 0
  %13 = load i32, ptr %12, align 8, !tbaa !143
  %14 = icmp ne i32 %13, 3
  br i1 %14, label %15, label %18

15:                                               ; preds = %9
  %16 = load ptr, ptr %3, align 8, !tbaa !12
  %17 = getelementptr inbounds nuw %struct.XML_ParserStruct, ptr %16, i32 0, i32 49
  store i32 34, ptr %17, align 8, !tbaa !136
  store i32 0, ptr %2, align 4
  store i32 1, ptr %5, align 4
  br label %89

18:                                               ; preds = %9
  %19 = load ptr, ptr %3, align 8, !tbaa !12
  %20 = getelementptr inbounds nuw %struct.XML_ParserStruct, ptr %19, i32 0, i32 88
  %21 = getelementptr inbounds nuw %struct.XML_ParsingStatus, ptr %20, i32 0, i32 0
  store i32 1, ptr %21, align 8, !tbaa !143
  %22 = load ptr, ptr %3, align 8, !tbaa !12
  %23 = load ptr, ptr %3, align 8, !tbaa !12
  %24 = getelementptr inbounds nuw %struct.XML_ParserStruct, ptr %23, i32 0, i32 4
  %25 = load ptr, ptr %24, align 8, !tbaa !118
  %26 = load ptr, ptr %3, align 8, !tbaa !12
  %27 = getelementptr inbounds nuw %struct.XML_ParserStruct, ptr %26, i32 0, i32 8
  %28 = load ptr, ptr %27, align 8, !tbaa !121
  %29 = load ptr, ptr %3, align 8, !tbaa !12
  %30 = getelementptr inbounds nuw %struct.XML_ParserStruct, ptr %29, i32 0, i32 4
  %31 = call i32 @callProcessor(ptr noundef %22, ptr noundef %25, ptr noundef %28, ptr noundef %30)
  %32 = load ptr, ptr %3, align 8, !tbaa !12
  %33 = getelementptr inbounds nuw %struct.XML_ParserStruct, ptr %32, i32 0, i32 49
  store i32 %31, ptr %33, align 8, !tbaa !136
  %34 = load ptr, ptr %3, align 8, !tbaa !12
  %35 = getelementptr inbounds nuw %struct.XML_ParserStruct, ptr %34, i32 0, i32 49
  %36 = load i32, ptr %35, align 8, !tbaa !136
  %37 = icmp ne i32 %36, 0
  br i1 %37, label %38, label %46

38:                                               ; preds = %18
  %39 = load ptr, ptr %3, align 8, !tbaa !12
  %40 = getelementptr inbounds nuw %struct.XML_ParserStruct, ptr %39, i32 0, i32 50
  %41 = load ptr, ptr %40, align 8, !tbaa !137
  %42 = load ptr, ptr %3, align 8, !tbaa !12
  %43 = getelementptr inbounds nuw %struct.XML_ParserStruct, ptr %42, i32 0, i32 51
  store ptr %41, ptr %43, align 8, !tbaa !138
  %44 = load ptr, ptr %3, align 8, !tbaa !12
  %45 = getelementptr inbounds nuw %struct.XML_ParserStruct, ptr %44, i32 0, i32 48
  store ptr @errorProcessor, ptr %45, align 8, !tbaa !92
  store i32 0, ptr %2, align 4
  store i32 1, ptr %5, align 4
  br label %89

46:                                               ; preds = %18
  %47 = load ptr, ptr %3, align 8, !tbaa !12
  %48 = getelementptr inbounds nuw %struct.XML_ParserStruct, ptr %47, i32 0, i32 88
  %49 = getelementptr inbounds nuw %struct.XML_ParsingStatus, ptr %48, i32 0, i32 0
  %50 = load i32, ptr %49, align 8, !tbaa !143
  switch i32 %50, label %64 [
    i32 3, label %51
    i32 0, label %52
    i32 1, label %52
  ]

51:                                               ; preds = %46
  store i32 2, ptr %4, align 4, !tbaa !174
  br label %65

52:                                               ; preds = %46, %46
  %53 = load ptr, ptr %3, align 8, !tbaa !12
  %54 = getelementptr inbounds nuw %struct.XML_ParserStruct, ptr %53, i32 0, i32 88
  %55 = getelementptr inbounds nuw %struct.XML_ParsingStatus, ptr %54, i32 0, i32 1
  %56 = load i8, ptr %55, align 4, !tbaa !212
  %57 = icmp ne i8 %56, 0
  br i1 %57, label %58, label %63

58:                                               ; preds = %52
  %59 = load ptr, ptr %3, align 8, !tbaa !12
  %60 = getelementptr inbounds nuw %struct.XML_ParserStruct, ptr %59, i32 0, i32 88
  %61 = getelementptr inbounds nuw %struct.XML_ParsingStatus, ptr %60, i32 0, i32 0
  store i32 2, ptr %61, align 8, !tbaa !143
  %62 = load i32, ptr %4, align 4, !tbaa !174
  store i32 %62, ptr %2, align 4
  store i32 1, ptr %5, align 4
  br label %89

63:                                               ; preds = %52
  br label %64

64:                                               ; preds = %46, %63
  br label %65

65:                                               ; preds = %64, %51
  br label %66

66:                                               ; preds = %65
  %67 = load ptr, ptr %3, align 8, !tbaa !12
  %68 = getelementptr inbounds nuw %struct.XML_ParserStruct, ptr %67, i32 0, i32 37
  %69 = load ptr, ptr %68, align 8, !tbaa !213
  %70 = getelementptr inbounds nuw %struct.encoding, ptr %69, i32 0, i32 8
  %71 = load ptr, ptr %70, align 8, !tbaa !214
  %72 = load ptr, ptr %3, align 8, !tbaa !12
  %73 = getelementptr inbounds nuw %struct.XML_ParserStruct, ptr %72, i32 0, i32 37
  %74 = load ptr, ptr %73, align 8, !tbaa !213
  %75 = load ptr, ptr %3, align 8, !tbaa !12
  %76 = getelementptr inbounds nuw %struct.XML_ParserStruct, ptr %75, i32 0, i32 52
  %77 = load ptr, ptr %76, align 8, !tbaa !139
  %78 = load ptr, ptr %3, align 8, !tbaa !12
  %79 = getelementptr inbounds nuw %struct.XML_ParserStruct, ptr %78, i32 0, i32 4
  %80 = load ptr, ptr %79, align 8, !tbaa !118
  %81 = load ptr, ptr %3, align 8, !tbaa !12
  %82 = getelementptr inbounds nuw %struct.XML_ParserStruct, ptr %81, i32 0, i32 81
  call void %71(ptr noundef %74, ptr noundef %77, ptr noundef %80, ptr noundef %82)
  %83 = load ptr, ptr %3, align 8, !tbaa !12
  %84 = getelementptr inbounds nuw %struct.XML_ParserStruct, ptr %83, i32 0, i32 4
  %85 = load ptr, ptr %84, align 8, !tbaa !118
  %86 = load ptr, ptr %3, align 8, !tbaa !12
  %87 = getelementptr inbounds nuw %struct.XML_ParserStruct, ptr %86, i32 0, i32 52
  store ptr %85, ptr %87, align 8, !tbaa !139
  %88 = load i32, ptr %4, align 4, !tbaa !174
  store i32 %88, ptr %2, align 4
  store i32 1, ptr %5, align 4
  br label %89

89:                                               ; preds = %66, %58, %38, %15, %8
  call void @llvm.lifetime.end.p0(i64 4, ptr %4) #11
  %90 = load i32, ptr %2, align 4
  ret i32 %90
}